target datalayout = "e-m:e-p270:32:32-p271:32:32-p272:64:64-i64:64-i128:128-f80:128-n8:16:32:64-S128"
target triple = "x86_64-pc-linux-gnu"

%struct.URLContext = type { ptr, ptr, ptr, ptr, i32, i32, i32, i32, %struct.AVIOInterruptCB, i64, ptr, ptr, i32 }
%struct.AVIOInterruptCB = type { ptr, ptr }
%struct.RTMPContext = type { ptr, ptr, [2 x ptr], [2 x i32], i32, i32, i32, ptr, i32, ptr, ptr, i32, i32, ptr, i32, i32, i32, %struct.RTMPPacket, i32, i64, i64, i32, i32, i32, i32, i32, [11 x i8], i32, i32, ptr, ptr, ptr, i32, i32, ptr, ptr, [42 x i8], ptr, ptr, i32, i32, i32, i32, ptr, i32, i32, i32, i32, i32, double, i32, ptr, [50 x i8], [50 x i8], [500 x i8], i32, i32 }
%struct.RTMPPacket = type { i32, i32, i32, i32, i32, ptr, i32, i32, i32 }

; Function Attrs: nounwind uwtable
define internal i32 @rtmp_read(ptr noundef %0, ptr noundef %1, i32 noundef %2) #0 {
  %4 = alloca i32, align 4
  %5 = alloca ptr, align 8
  %6 = alloca ptr, align 8
  %7 = alloca i32, align 4
  %8 = alloca ptr, align 8
  %9 = alloca i32, align 4
  %10 = alloca i32, align 4
  %11 = alloca i32, align 4
  %12 = alloca i32, align 4
  store ptr %0, ptr %5, align 8, !tbaa !4
  store ptr %1, ptr %6, align 8, !tbaa !9
  store i32 %2, ptr %7, align 4, !tbaa !11
  call void @llvm.lifetime.start.p0(i64 8, ptr %8) #12
  %13 = load ptr, ptr %5, align 8, !tbaa !4
  %14 = getelementptr inbounds nuw %struct.URLContext, ptr %13, i32 0, i32 2
  %15 = load ptr, ptr %14, align 8, !tbaa !16
  store ptr %15, ptr %8, align 8, !tbaa !22
  call void @llvm.lifetime.start.p0(i64 4, ptr %9) #12
  %16 = load i32, ptr %7, align 4, !tbaa !11
  store i32 %16, ptr %9, align 4, !tbaa !11
  call void @llvm.lifetime.start.p0(i64 4, ptr %10) #12
  br label %17

17:                                               ; preds = %86, %3
  %18 = load i32, ptr %7, align 4, !tbaa !11
  %19 = icmp sgt i32 %18, 0
  br i1 %19, label %20, label %87

20:                                               ; preds = %17
  call void @llvm.lifetime.start.p0(i64 4, ptr %11) #12
  %21 = load ptr, ptr %8, align 8, !tbaa !22
  %22 = getelementptr inbounds nuw %struct.RTMPContext, ptr %21, i32 0, i32 14
  %23 = load i32, ptr %22, align 8, !tbaa !60
  %24 = load ptr, ptr %8, align 8, !tbaa !22
  %25 = getelementptr inbounds nuw %struct.RTMPContext, ptr %24, i32 0, i32 15
  %26 = load i32, ptr %25, align 4, !tbaa !61
  %27 = sub nsw i32 %23, %26
  store i32 %27, ptr %11, align 4, !tbaa !11
  %28 = load i32, ptr %11, align 4, !tbaa !11
  %29 = load i32, ptr %7, align 4, !tbaa !11
  %30 = icmp sge i32 %28, %29
  br i1 %30, label %31, label %49

31:                                               ; preds = %20
  %32 = load ptr, ptr %6, align 8, !tbaa !9
  %33 = load ptr, ptr %8, align 8, !tbaa !22
  %34 = getelementptr inbounds nuw %struct.RTMPContext, ptr %33, i32 0, i32 13
  %35 = load ptr, ptr %34, align 8, !tbaa !62
  %36 = load ptr, ptr %8, align 8, !tbaa !22
  %37 = getelementptr inbounds nuw %struct.RTMPContext, ptr %36, i32 0, i32 15
  %38 = load i32, ptr %37, align 4, !tbaa !61
  %39 = sext i32 %38 to i64
  %40 = getelementptr inbounds i8, ptr %35, i64 %39
  %41 = load i32, ptr %7, align 4, !tbaa !11
  %42 = sext i32 %41 to i64
  call void @llvm.memcpy.p0.p0.i64(ptr align 1 %32, ptr align 1 %40, i64 %42, i1 false)
  %43 = load i32, ptr %7, align 4, !tbaa !11
  %44 = load ptr, ptr %8, align 8, !tbaa !22
  %45 = getelementptr inbounds nuw %struct.RTMPContext, ptr %44, i32 0, i32 15
  %46 = load i32, ptr %45, align 4, !tbaa !61
  %47 = add nsw i32 %46, %43
  store i32 %47, ptr %45, align 4, !tbaa !61
  %48 = load i32, ptr %9, align 4, !tbaa !11
  store i32 %48, ptr %4, align 4
  store i32 1, ptr %12, align 4
  br label %84

49:                                               ; preds = %20
  %50 = load i32, ptr %11, align 4, !tbaa !11
  %51 = icmp sgt i32 %50, 0
  br i1 %51, label %52, label %77

52:                                               ; preds = %49
  %53 = load ptr, ptr %6, align 8, !tbaa !9
  %54 = load ptr, ptr %8, align 8, !tbaa !22
  %55 = getelementptr inbounds nuw %struct.RTMPContext, ptr %54, i32 0, i32 13
  %56 = load ptr, ptr %55, align 8, !tbaa !62
  %57 = load ptr, ptr %8, align 8, !tbaa !22
  %58 = getelementptr inbounds nuw %struct.RTMPContext, ptr %57, i32 0, i32 15
  %59 = load i32, ptr %58, align 4, !tbaa !61
  %60 = sext i32 %59 to i64
  %61 = getelementptr inbounds i8, ptr %56, i64 %60
  %62 = load i32, ptr %11, align 4, !tbaa !11
  %63 = sext i32 %62 to i64
  call void @llvm.memcpy.p0.p0.i64(ptr align 1 %53, ptr align 1 %61, i64 %63, i1 false)
  %64 = load i32, ptr %11, align 4, !tbaa !11
  %65 = load ptr, ptr %6, align 8, !tbaa !9
  %66 = sext i32 %64 to i64
  %67 = getelementptr inbounds i8, ptr %65, i64 %66
  store ptr %67, ptr %6, align 8, !tbaa !9
  %68 = load i32, ptr %11, align 4, !tbaa !11
  %69 = load i32, ptr %7, align 4, !tbaa !11
  %70 = sub nsw i32 %69, %68
  store i32 %70, ptr %7, align 4, !tbaa !11
  %71 = load ptr, ptr %8, align 8, !tbaa !22
  %72 = getelementptr inbounds nuw %struct.RTMPContext, ptr %71, i32 0, i32 14
  %73 = load i32, ptr %72, align 8, !tbaa !60
  %74 = load ptr, ptr %8, align 8, !tbaa !22
  %75 = getelementptr inbounds nuw %struct.RTMPContext, ptr %74, i32 0, i32 15
  store i32 %73, ptr %75, align 4, !tbaa !61
  %76 = load i32, ptr %11, align 4, !tbaa !11
  store i32 %76, ptr %4, align 4
  store i32 1, ptr %12, align 4
  br label %84

77:                                               ; preds = %49
  %78 = load ptr, ptr %5, align 8, !tbaa !4
  %79 = call i32 @get_packet(ptr noundef %78, i32 noundef 0)
  store i32 %79, ptr %10, align 4, !tbaa !11
  %80 = icmp slt i32 %79, 0
  br i1 %80, label %81, label %83

81:                                               ; preds = %77
  %82 = load i32, ptr %10, align 4, !tbaa !11
  store i32 %82, ptr %4, align 4
  store i32 1, ptr %12, align 4
  br label %84

83:                                               ; preds = %77
  store i32 0, ptr %12, align 4
  br label %84

84:                                               ; preds = %83, %81, %52, %31
  call void @llvm.lifetime.end.p0(i64 4, ptr %11) #12
  %85 = load i32, ptr %12, align 4
  switch i32 %85, label %89 [
    i32 0, label %86
  ]

86:                                               ; preds = %84
  br label %17, !llvm.loop !68

87:                                               ; preds = %17
  %88 = load i32, ptr %9, align 4, !tbaa !11
  store i32 %88, ptr %4, align 4
  store i32 1, ptr %12, align 4
  br label %89

89:                                               ; preds = %87, %84
  call void @llvm.lifetime.end.p0(i64 4, ptr %10) #12
  call void @llvm.lifetime.end.p0(i64 4, ptr %9) #12
  call void @llvm.lifetime.end.p0(i64 8, ptr %8) #12
  %90 = load i32, ptr %4, align 4
  ret i32 %90
}