; Function Attrs: nounwind uwtable
define internal i32 @rtmp_read(ptr noundef %0, ptr noundef writeonly captures(none) %1, i32 noundef %2) #0 {
  %4 = getelementptr inbounds nuw i8, ptr %0, i64 16
  %5 = load ptr, ptr %4, align 8, !tbaa !4
  %6 = icmp sgt i32 %2, 0
  %7 = getelementptr inbounds nuw i8, ptr %5, i64 104
  %8 = getelementptr inbounds nuw i8, ptr %5, i64 108
  br i1 %6, label %.split, label %.thread

.split:                                           ; preds = %3, %29
  %9 = load i32, ptr %7, align 8, !tbaa !85
  %10 = load i32, ptr %8, align 4, !tbaa !86
  %11 = sub nsw i32 %9, %10
  %.not = icmp slt i32 %11, %2
  br i1 %.not, label %20, label %12

12:                                               ; preds = %.split
  %13 = getelementptr inbounds nuw i8, ptr %5, i64 96
  %14 = load ptr, ptr %13, align 8, !tbaa !87
  %15 = sext i32 %10 to i64
  %16 = getelementptr inbounds i8, ptr %14, i64 %15
  %17 = zext nneg i32 %2 to i64
  tail call void @llvm.memcpy.p0.p0.i64(ptr align 1 %1, ptr align 1 %16, i64 %17, i1 false)
  %18 = load i32, ptr %8, align 4, !tbaa !86
  %19 = add nsw i32 %18, %2
  br label %.thread.sink.split

20:                                               ; preds = %.split
  %21 = icmp sgt i32 %11, 0
  br i1 %21, label %22, label %29

22:                                               ; preds = %20
  %23 = getelementptr inbounds nuw i8, ptr %5, i64 96
  %24 = load ptr, ptr %23, align 8, !tbaa !87
  %25 = sext i32 %10 to i64
  %26 = getelementptr inbounds i8, ptr %24, i64 %25
  %27 = zext nneg i32 %11 to i64
  tail call void @llvm.memcpy.p0.p0.i64(ptr align 1 %1, ptr align 1 %26, i64 %27, i1 false)
  %28 = load i32, ptr %7, align 8, !tbaa !85
  br label %.thread.sink.split

29:                                               ; preds = %20
  %30 = tail call fastcc i32 @get_packet(ptr noundef %0, i32 noundef 0)
  %31 = icmp sgt i32 %30, -1
  br i1 %31, label %.split, label %.thread, !llvm.loop !92

.thread.sink.split:                               ; preds = %12, %22
  %.sink = phi i32 [ %28, %22 ], [ %19, %12 ]
  %.2.ph = phi i32 [ %11, %22 ], [ %2, %12 ]
  store i32 %.sink, ptr %8, align 4, !tbaa !86
  br label %.thread

.thread:                                          ; preds = %29, %.thread.sink.split, %3
  %.2 = phi i32 [ %2, %3 ], [ %.2.ph, %.thread.sink.split ], [ %30, %29 ]
  ret i32 %.2
}